target datalayout = "e-m:e-p270:32:32-p271:32:32-p272:64:64-i64:64-i128:128-f80:128-n8:16:32:64-S128"
target triple = "x86_64-pc-linux-gnu"

%"struct.Stockfish::StateInfo" = type { i64, i64, [2 x i32], i32, i32, i32, i32, i64, i64, ptr, [2 x i64], [2 x i64], [8 x i64], i32, i32, [24 x i8], %"struct.Stockfish::Eval::NNUE::Accumulator", %"struct.Stockfish::Eval::NNUE::Accumulator.23", %"struct.Stockfish::DirtyPiece", [24 x i8] }
%"struct.Stockfish::Eval::NNUE::Accumulator" = type { [2 x [2560 x i16]], [2 x [8 x i32]], [2 x i8], [2 x i8], [60 x i8] }
%"struct.Stockfish::Eval::NNUE::Accumulator.23" = type { [2 x [128 x i16]], [2 x [8 x i32]], [2 x i8], [2 x i8], [60 x i8] }
%"struct.Stockfish::DirtyPiece" = type { i32, [3 x i32], [3 x i32], [3 x i32] }
%"struct.Stockfish::MoveList" = type { [256 x %"struct.Stockfish::ExtMove"], ptr }
%"struct.Stockfish::ExtMove" = type { %"class.Stockfish::Move", i32 }
%"class.Stockfish::Move" = type { i16 }
%"class.Stockfish::Position" = type <{ [64 x i32], [8 x i64], [2 x i64], [16 x i32], [64 x i32], [16 x i32], [16 x i64], ptr, i32, i32, i8, [7 x i8] }>

; Function Attrs: mustprogress nounwind uwtable
define linkonce_odr dso_local noundef i32 @_ZNK9Stockfish8Position8piece_onENS_6SquareE(ptr noundef nonnull align 8 dereferenceable(865) %0, i32 noundef %1) #4 comdat align 2 {
  %3 = alloca ptr, align 8
  %4 = alloca i32, align 4
  store ptr %0, ptr %3, align 8
  store i32 %1, ptr %4, align 4
  %5 = load ptr, ptr %3, align 8
  %6 = getelementptr inbounds %"class.Stockfish::Position", ptr %5, i32 0, i32 0
  %7 = load i32, ptr %4, align 4
  %8 = sext i32 %7 to i64
  %9 = getelementptr inbounds [64 x i32], ptr %6, i64 0, i64 %8
  %10 = load i32, ptr %9, align 4
  ret i32 %10
}

; Function Attrs: mustprogress nounwind uwtable
define linkonce_odr dso_local noundef i32 @_ZNK9Stockfish4Move7from_sqEv(ptr noundef nonnull align 2 dereferenceable(2) %0) #4 comdat align 2 {
  %2 = alloca ptr, align 8
  store ptr %0, ptr %2, align 8
  %3 = load ptr, ptr %2, align 8
  %4 = getelementptr inbounds %"class.Stockfish::Move", ptr %3, i32 0, i32 0
  %5 = load i16, ptr %4, align 2
  %6 = zext i16 %5 to i32
  %7 = ashr i32 %6, 6
  %8 = and i32 %7, 63
  ret i32 %8
}

; Function Attrs: mustprogress nounwind uwtable
define linkonce_odr dso_local noundef i32 @_ZNK9Stockfish4Move7type_ofEv(ptr noundef nonnull align 2 dereferenceable(2) %0) #4 comdat align 2 {
  %2 = alloca ptr, align 8
  store ptr %0, ptr %2, align 8
  %3 = load ptr, ptr %2, align 8
  %4 = getelementptr inbounds %"class.Stockfish::Move", ptr %3, i32 0, i32 0
  %5 = load i16, ptr %4, align 2
  %6 = zext i16 %5 to i32
  %7 = and i32 %6, 49152
  ret i32 %7
}

; Function Attrs: mustprogress nounwind uwtable
define linkonce_odr dso_local noundef zeroext i1 @_ZNK9Stockfish8Position5emptyENS_6SquareE(ptr noundef nonnull align 8 dereferenceable(865) %0, i32 noundef %1) #4 comdat align 2 {
  %3 = alloca ptr, align 8
  %4 = alloca i32, align 4
  store ptr %0, ptr %3, align 8
  store i32 %1, ptr %4, align 4
  %5 = load ptr, ptr %3, align 8
  %6 = load i32, ptr %4, align 4
  %7 = call noundef i32 @_ZNK9Stockfish8Position8piece_onENS_6SquareE(ptr noundef nonnull align 8 dereferenceable(865) %5, i32 noundef %6)
  %8 = icmp eq i32 %7, 0
  ret i1 %8
}

; Function Attrs: mustprogress nounwind uwtable
define linkonce_odr dso_local noundef i32 @_ZNK9Stockfish4Move5to_sqEv(ptr noundef nonnull align 2 dereferenceable(2) %0) #4 comdat align 2 {
  %2 = alloca ptr, align 8
  store ptr %0, ptr %2, align 8
  %3 = load ptr, ptr %2, align 8
  %4 = getelementptr inbounds %"class.Stockfish::Move", ptr %3, i32 0, i32 0
  %5 = load i16, ptr %4, align 2
  %6 = zext i16 %5 to i32
  %7 = and i32 %6, 63
  ret i32 %7
}

; Function Attrs: mustprogress nounwind uwtable
define internal noundef i32 @_ZN9Stockfish12_GLOBAL__N_1ngENS_10Tablebases8WDLScoreE(i32 noundef %0) #4 {
  %2 = alloca i32, align 4
  store i32 %0, ptr %2, align 4
  %3 = load i32, ptr %2, align 4
  %4 = sub nsw i32 0, %3
  ret i32 %4
}

; Function Attrs: mustprogress nounwind uwtable
define linkonce_odr dso_local void @_ZN9Stockfish8Position7do_moveENS_4MoveERNS_9StateInfoE(ptr noundef nonnull align 8 dereferenceable(865) %0, i16 %1, ptr noundef nonnull align 64 dereferenceable(11264) %2) #4 comdat align 2 {
  %4 = alloca %"class.Stockfish::Move", align 2
  %5 = alloca ptr, align 8
  %6 = alloca ptr, align 8
  %7 = alloca %"class.Stockfish::Move", align 2
  %8 = alloca %"class.Stockfish::Move", align 2
  %9 = getelementptr inbounds %"class.Stockfish::Move", ptr %4, i32 0, i32 0
  store i16 %1, ptr %9, align 2
  store ptr %0, ptr %5, align 8
  store ptr %2, ptr %6, align 8
  %10 = load ptr, ptr %5, align 8
  call void @llvm.memcpy.p0.p0.i64(ptr align 2 %7, ptr align 2 %4, i64 2, i1 false)
  %11 = load ptr, ptr %6, align 8
  call void @llvm.memcpy.p0.p0.i64(ptr align 2 %8, ptr align 2 %4, i64 2, i1 false)
  %12 = getelementptr inbounds %"class.Stockfish::Move", ptr %8, i32 0, i32 0
  %13 = load i16, ptr %12, align 2
  %14 = call noundef zeroext i1 @_ZNK9Stockfish8Position11gives_checkENS_4MoveE(ptr noundef nonnull align 8 dereferenceable(865) %10, i16 %13)
  %15 = getelementptr inbounds %"class.Stockfish::Move", ptr %7, i32 0, i32 0
  %16 = load i16, ptr %15, align 2
  call void @_ZN9Stockfish8Position7do_moveENS_4MoveERNS_9StateInfoEb(ptr noundef nonnull align 8 dereferenceable(865) %10, i16 %16, ptr noundef nonnull align 64 dereferenceable(11264) %11, i1 noundef zeroext %14)
  ret void
}

; Function Attrs: mustprogress nounwind uwtable
define linkonce_odr dso_local noundef i32 @_ZN9Stockfish7type_ofENS_5PieceE(i32 noundef %0) #4 comdat {
  %2 = alloca i32, align 4
  store i32 %0, ptr %2, align 4
  %3 = load i32, ptr %2, align 4
  %4 = and i32 %3, 7
  ret i32 %4
}

; Function Attrs: mustprogress nounwind uwtable
define linkonce_odr dso_local noundef i32 @_ZNK9Stockfish8Position11moved_pieceENS_4MoveE(ptr noundef nonnull align 8 dereferenceable(865) %0, i16 %1) #4 comdat align 2 {
  %3 = alloca %"class.Stockfish::Move", align 2
  %4 = alloca ptr, align 8
  %5 = getelementptr inbounds %"class.Stockfish::Move", ptr %3, i32 0, i32 0
  store i16 %1, ptr %5, align 2
  store ptr %0, ptr %4, align 8
  %6 = load ptr, ptr %4, align 8
  %7 = call noundef i32 @_ZNK9Stockfish4Move7from_sqEv(ptr noundef nonnull align 2 dereferenceable(2) %3)
  %8 = call noundef i32 @_ZNK9Stockfish8Position8piece_onENS_6SquareE(ptr noundef nonnull align 8 dereferenceable(865) %6, i32 noundef %7)
  ret i32 %8
}

; Function Attrs: mustprogress nounwind uwtable
define linkonce_odr dso_local noundef zeroext i1 @_ZNK9Stockfish8Position7captureENS_4MoveE(ptr noundef nonnull align 8 dereferenceable(865) %0, i16 %1) #4 comdat align 2 {
  %3 = alloca %"class.Stockfish::Move", align 2
  %4 = alloca ptr, align 8
  %5 = getelementptr inbounds %"class.Stockfish::Move", ptr %3, i32 0, i32 0
  store i16 %1, ptr %5, align 2
  store ptr %0, ptr %4, align 8
  %6 = load ptr, ptr %4, align 8
  %7 = call noundef i32 @_ZNK9Stockfish4Move5to_sqEv(ptr noundef nonnull align 2 dereferenceable(2) %3)
  %8 = call noundef zeroext i1 @_ZNK9Stockfish8Position5emptyENS_6SquareE(ptr noundef nonnull align 8 dereferenceable(865) %6, i32 noundef %7)
  br i1 %8, label %12, label %9

9:                                                ; preds = %2
  %10 = call noundef i32 @_ZNK9Stockfish4Move7type_ofEv(ptr noundef nonnull align 2 dereferenceable(2) %3)
  %11 = icmp ne i32 %10, 49152
  br i1 %11, label %15, label %12

12:                                               ; preds = %9, %2
  %13 = call noundef i32 @_ZNK9Stockfish4Move7type_ofEv(ptr noundef nonnull align 2 dereferenceable(2) %3)
  %14 = icmp eq i32 %13, 32768
  br label %15

15:                                               ; preds = %12, %9
  %16 = phi i1 [ true, %9 ], [ %14, %12 ]
  ret i1 %16
}

; Function Attrs: mustprogress nounwind uwtable
define linkonce_odr dso_local noundef ptr @_ZNK9Stockfish8MoveListILNS_7GenTypeE5EE3endEv(ptr noundef nonnull align 8 dereferenceable(2056) %0) #4 comdat align 2 {
  %2 = alloca ptr, align 8
  store ptr %0, ptr %2, align 8
  %3 = load ptr, ptr %2, align 8
  %4 = getelementptr inbounds %"struct.Stockfish::MoveList", ptr %3, i32 0, i32 1
  %5 = load ptr, ptr %4, align 8
  ret ptr %5
}

; Function Attrs: mustprogress nounwind uwtable
define linkonce_odr dso_local noundef ptr @_ZNK9Stockfish8MoveListILNS_7GenTypeE5EE5beginEv(ptr noundef nonnull align 8 dereferenceable(2056) %0) #4 comdat align 2 {
  %2 = alloca ptr, align 8
  store ptr %0, ptr %2, align 8
  %3 = load ptr, ptr %2, align 8
  %4 = getelementptr inbounds %"struct.Stockfish::MoveList", ptr %3, i32 0, i32 0
  %5 = getelementptr inbounds [256 x %"struct.Stockfish::ExtMove"], ptr %4, i64 0, i64 0
  ret ptr %5
}

; Function Attrs: mustprogress nounwind uwtable
define linkonce_odr dso_local noundef i64 @_ZNK9Stockfish8MoveListILNS_7GenTypeE5EE4sizeEv(ptr noundef nonnull align 8 dereferenceable(2056) %0) #4 comdat align 2 {
  %2 = alloca ptr, align 8
  store ptr %0, ptr %2, align 8
  %3 = load ptr, ptr %2, align 8
  %4 = getelementptr inbounds %"struct.Stockfish::MoveList", ptr %3, i32 0, i32 1
  %5 = load ptr, ptr %4, align 8
  %6 = getelementptr inbounds %"struct.Stockfish::MoveList", ptr %3, i32 0, i32 0
  %7 = getelementptr inbounds [256 x %"struct.Stockfish::ExtMove"], ptr %6, i64 0, i64 0
  %8 = ptrtoint ptr %5 to i64
  %9 = ptrtoint ptr %7 to i64
  %10 = sub i64 %8, %9
  %11 = sdiv exact i64 %10, 8
  ret i64 %11
}

; Function Attrs: mustprogress nounwind uwtable
define linkonce_odr dso_local void @_ZN9Stockfish8MoveListILNS_7GenTypeE5EEC2ERKNS_8PositionE(ptr noundef nonnull align 8 dereferenceable(2056) %0, ptr noundef nonnull align 8 dereferenceable(865) %1) unnamed_addr #4 comdat align 2 {
  %3 = alloca ptr, align 8
  %4 = alloca ptr, align 8
  store ptr %0, ptr %3, align 8
  store ptr %1, ptr %4, align 8
  %5 = load ptr, ptr %3, align 8
  %6 = getelementptr inbounds %"struct.Stockfish::MoveList", ptr %5, i32 0, i32 1
  %7 = load ptr, ptr %4, align 8
  %8 = getelementptr inbounds %"struct.Stockfish::MoveList", ptr %5, i32 0, i32 0
  %9 = getelementptr inbounds [256 x %"struct.Stockfish::ExtMove"], ptr %8, i64 0, i64 0
  %10 = call noundef ptr @_ZN9Stockfish8generateILNS_7GenTypeE5EEEPNS_7ExtMoveERKNS_8PositionES3_(ptr noundef nonnull align 8 dereferenceable(865) %7, ptr noundef %9)
  store ptr %10, ptr %6, align 8
  ret void
}

; Function Attrs: mustprogress nounwind uwtable
define internal noundef i32 @_ZN9Stockfish12_GLOBAL__N_16searchILb1EEENS_10Tablebases8WDLScoreERNS_8PositionEPNS2_10ProbeStateE(ptr noundef nonnull align 8 dereferenceable(865) %0, ptr noundef %1) #4 {
  %3 = alloca i32, align 4
  %4 = alloca ptr, align 8
  %5 = alloca ptr, align 8
  %6 = alloca i32, align 4
  %7 = alloca i32, align 4
  %8 = alloca %"struct.Stockfish::StateInfo", align 64
  %9 = alloca %"struct.Stockfish::MoveList", align 8
  %10 = alloca i64, align 8
  %11 = alloca i64, align 8
  %12 = alloca ptr, align 8
  %13 = alloca ptr, align 8
  %14 = alloca ptr, align 8
  %15 = alloca %"class.Stockfish::Move", align 2
  %16 = alloca %"class.Stockfish::Move", align 2
  %17 = alloca %"class.Stockfish::Move", align 2
  %18 = alloca %"class.Stockfish::Move", align 2
  %19 = alloca %"class.Stockfish::Move", align 2
  %20 = alloca i8, align 1
  store ptr %0, ptr %4, align 8
  store ptr %1, ptr %5, align 8
  store i32 -2, ptr %7, align 4
  %21 = load ptr, ptr %4, align 8
  call void @_ZN9Stockfish8MoveListILNS_7GenTypeE5EEC2ERKNS_8PositionE(ptr noundef nonnull align 8 dereferenceable(2056) %9, ptr noundef nonnull align 8 dereferenceable(865) %21)
  %22 = call noundef i64 @_ZNK9Stockfish8MoveListILNS_7GenTypeE5EE4sizeEv(ptr noundef nonnull align 8 dereferenceable(2056) %9)
  store i64 %22, ptr %10, align 8
  store i64 0, ptr %11, align 8
  store ptr %9, ptr %12, align 8
  %23 = load ptr, ptr %12, align 8
  %24 = call noundef ptr @_ZNK9Stockfish8MoveListILNS_7GenTypeE5EE5beginEv(ptr noundef nonnull align 8 dereferenceable(2056) %23)
  store ptr %24, ptr %13, align 8
  %25 = load ptr, ptr %12, align 8
  %26 = call noundef ptr @_ZNK9Stockfish8MoveListILNS_7GenTypeE5EE3endEv(ptr noundef nonnull align 8 dereferenceable(2056) %25)
  store ptr %26, ptr %14, align 8
  br label %27

27:                                               ; preds = %75, %2
  %28 = load ptr, ptr %13, align 8
  %29 = load ptr, ptr %14, align 8
  %30 = icmp ne ptr %28, %29
  br i1 %30, label %31, label %78

31:                                               ; preds = %27
  %32 = load ptr, ptr %13, align 8
  call void @llvm.memcpy.p0.p0.i64(ptr align 2 %15, ptr align 4 %32, i64 2, i1 false)
  %33 = load ptr, ptr %4, align 8
  call void @llvm.memcpy.p0.p0.i64(ptr align 2 %16, ptr align 2 %15, i64 2, i1 false)
  %34 = getelementptr inbounds %"class.Stockfish::Move", ptr %16, i32 0, i32 0
  %35 = load i16, ptr %34, align 2
  %36 = call noundef zeroext i1 @_ZNK9Stockfish8Position7captureENS_4MoveE(ptr noundef nonnull align 8 dereferenceable(865) %33, i16 %35)
  br i1 %36, label %45, label %37

37:                                               ; preds = %31
  %38 = load ptr, ptr %4, align 8
  call void @llvm.memcpy.p0.p0.i64(ptr align 2 %17, ptr align 2 %15, i64 2, i1 false)
  %39 = getelementptr inbounds %"class.Stockfish::Move", ptr %17, i32 0, i32 0
  %40 = load i16, ptr %39, align 2
  %41 = call noundef i32 @_ZNK9Stockfish8Position11moved_pieceENS_4MoveE(ptr noundef nonnull align 8 dereferenceable(865) %38, i16 %40)
  %42 = call noundef i32 @_ZN9Stockfish7type_ofENS_5PieceE(i32 noundef %41)
  %43 = icmp ne i32 %42, 1
  br i1 %43, label %44, label %45

44:                                               ; preds = %37
  br label %75

45:                                               ; preds = %37, %31
  %46 = load i64, ptr %11, align 8
  %47 = add i64 %46, 1
  store i64 %47, ptr %11, align 8
  %48 = load ptr, ptr %4, align 8
  call void @llvm.memcpy.p0.p0.i64(ptr align 2 %18, ptr align 2 %15, i64 2, i1 false)
  %49 = getelementptr inbounds %"class.Stockfish::Move", ptr %18, i32 0, i32 0
  %50 = load i16, ptr %49, align 2
  call void @_ZN9Stockfish8Position7do_moveENS_4MoveERNS_9StateInfoE(ptr noundef nonnull align 8 dereferenceable(865) %48, i16 %50, ptr noundef nonnull align 64 dereferenceable(11264) %8)
  %51 = load ptr, ptr %4, align 8
  %52 = load ptr, ptr %5, align 8
  %53 = call noundef i32 @_ZN9Stockfish12_GLOBAL__N_16searchILb0EEENS_10Tablebases8WDLScoreERNS_8PositionEPNS2_10ProbeStateE(ptr noundef nonnull align 8 dereferenceable(865) %51, ptr noundef %52)
  %54 = call noundef i32 @_ZN9Stockfish12_GLOBAL__N_1ngENS_10Tablebases8WDLScoreE(i32 noundef %53)
  store i32 %54, ptr %6, align 4
  %55 = load ptr, ptr %4, align 8
  call void @llvm.memcpy.p0.p0.i64(ptr align 2 %19, ptr align 2 %15, i64 2, i1 false)
  %56 = getelementptr inbounds %"class.Stockfish::Move", ptr %19, i32 0, i32 0
  %57 = load i16, ptr %56, align 2
  call void @_ZN9Stockfish8Position9undo_moveENS_4MoveE(ptr noundef nonnull align 8 dereferenceable(865) %55, i16 %57)
  %58 = load ptr, ptr %5, align 8
  %59 = load i32, ptr %58, align 4
  %60 = icmp eq i32 %59, 0
  br i1 %60, label %61, label %62

61:                                               ; preds = %45
  store i32 0, ptr %3, align 4
  br label %119

62:                                               ; preds = %45
  %63 = load i32, ptr %6, align 4
  %64 = load i32, ptr %7, align 4
  %65 = icmp sgt i32 %63, %64
  br i1 %65, label %66, label %74

66:                                               ; preds = %62
  %67 = load i32, ptr %6, align 4
  store i32 %67, ptr %7, align 4
  %68 = load i32, ptr %6, align 4
  %69 = icmp sge i32 %68, 2
  br i1 %69, label %70, label %73

70:                                               ; preds = %66
  %71 = load ptr, ptr %5, align 8
  store i32 2, ptr %71, align 4
  %72 = load i32, ptr %6, align 4
  store i32 %72, ptr %3, align 4
  br label %119

73:                                               ; preds = %66
  br label %74

74:                                               ; preds = %73, %62
  br label %75

75:                                               ; preds = %74, %44
  %76 = load ptr, ptr %13, align 8
  %77 = getelementptr inbounds %"struct.Stockfish::ExtMove", ptr %76, i32 1
  store ptr %77, ptr %13, align 8
  br label %27

78:                                               ; preds = %27
  %79 = load i64, ptr %11, align 8
  %80 = icmp ne i64 %79, 0
  br i1 %80, label %81, label %85

81:                                               ; preds = %78
  %82 = load i64, ptr %11, align 8
  %83 = load i64, ptr %10, align 8
  %84 = icmp eq i64 %82, %83
  br label %85

85:                                               ; preds = %81, %78
  %86 = phi i1 [ false, %78 ], [ %84, %81 ]
  %87 = zext i1 %86 to i8
  store i8 %87, ptr %20, align 1
  %88 = load i8, ptr %20, align 1
  %89 = trunc i8 %88 to i1
  br i1 %89, label %90, label %92

90:                                               ; preds = %85
  %91 = load i32, ptr %7, align 4
  store i32 %91, ptr %6, align 4
  br label %101

92:                                               ; preds = %85
  %93 = load ptr, ptr %4, align 8
  %94 = load ptr, ptr %5, align 8
  %95 = call noundef i32 @_ZN9Stockfish12_GLOBAL__N_111probe_tableILNS0_6TBTypeE0ENS_10Tablebases8WDLScoreEEET0_RKNS_8PositionEPNS3_10ProbeStateES4_(ptr noundef nonnull align 8 dereferenceable(865) %93, ptr noundef %94, i32 noundef 0)
  store i32 %95, ptr %6, align 4
  %96 = load ptr, ptr %5, align 8
  %97 = load i32, ptr %96, align 4
  %98 = icmp eq i32 %97, 0
  br i1 %98, label %99, label %100

99:                                               ; preds = %92
  store i32 0, ptr %3, align 4
  br label %119

100:                                              ; preds = %92
  br label %101

101:                                              ; preds = %100, %90
  %102 = load i32, ptr %7, align 4
  %103 = load i32, ptr %6, align 4
  %104 = icmp sge i32 %102, %103
  br i1 %104, label %105, label %116

105:                                              ; preds = %101
  %106 = load i32, ptr %7, align 4
  %107 = icmp sgt i32 %106, 0
  br i1 %107, label %111, label %108

108:                                              ; preds = %105
  %109 = load i8, ptr %20, align 1
  %110 = trunc i8 %109 to i1
  br label %111

111:                                              ; preds = %108, %105
  %112 = phi i1 [ true, %105 ], [ %110, %108 ]
  %113 = select i1 %112, i32 2, i32 1
  %114 = load ptr, ptr %5, align 8
  store i32 %113, ptr %114, align 4
  %115 = load i32, ptr %7, align 4
  store i32 %115, ptr %3, align 4
  br label %119

116:                                              ; preds = %101
  %117 = load ptr, ptr %5, align 8
  store i32 1, ptr %117, align 4
  %118 = load i32, ptr %6, align 4
  store i32 %118, ptr %3, align 4
  br label %119

119:                                              ; preds = %116, %111, %99, %70, %61
  %120 = load i32, ptr %3, align 4
  ret i32 %120
}