; Function Attrs: mustprogress nounwind uwtable
define internal fastcc noundef i32 @_ZN9Stockfish12_GLOBAL__N_16searchILb1EEENS_10Tablebases8WDLScoreERNS_8PositionEPNS2_10ProbeStateE(ptr noundef nonnull align 8 dereferenceable(865) %0, ptr nocapture noundef %1) unnamed_addr #3 {
  %3 = alloca %"struct.Stockfish::StateInfo", align 64
  %4 = alloca %"struct.Stockfish::MoveList", align 8
  %5 = getelementptr inbounds i8, ptr %4, i64 2048
  %6 = call noundef ptr @_ZN9Stockfish8generateILNS_7GenTypeE5EEEPNS_7ExtMoveERKNS_8PositionES3_(ptr noundef nonnull align 8 dereferenceable(865) %0, ptr noundef nonnull %4) #24
  store ptr %6, ptr %5, align 8
  %7 = ptrtoint ptr %6 to i64
  %8 = ptrtoint ptr %4 to i64
  %9 = sub i64 %7, %8
  %10 = ashr exact i64 %9, 3
  %.not59 = icmp eq ptr %4, %6
  br i1 %.not59, label %._crit_edge.thread, label %.lr.ph

.lr.ph:                                           ; preds = %2, %35
  %.04562 = phi i32 [ %.1, %35 ], [ -2, %2 ]
  %.04661 = phi i64 [ %.147, %35 ], [ 0, %2 ]
  %.04860 = phi ptr [ %36, %35 ], [ %4, %2 ]
  %.sroa.05.0.copyload = load i16, ptr %.04860, align 4
  %11 = and i16 %.sroa.05.0.copyload, 63
  %12 = zext nneg i16 %11 to i64
  %13 = getelementptr inbounds [64 x i32], ptr %0, i64 0, i64 %12
  %14 = load i32, ptr %13, align 4
  %15 = icmp ne i32 %14, 0
  %.not.i = icmp ult i16 %.sroa.05.0.copyload, -16384
  %or.cond.i.not54 = and i1 %.not.i, %15
  %16 = and i16 %.sroa.05.0.copyload, -16384
  %17 = icmp eq i16 %16, -32768
  %or.cond = or i1 %17, %or.cond.i.not54
  br i1 %or.cond, label %_ZNK9Stockfish8Position7captureENS_4MoveE.exit.thread, label %18

18:                                               ; preds = %.lr.ph
  %19 = lshr i16 %.sroa.05.0.copyload, 6
  %20 = and i16 %19, 63
  %21 = zext nneg i16 %20 to i64
  %22 = getelementptr inbounds [64 x i32], ptr %0, i64 0, i64 %21
  %23 = load i32, ptr %22, align 4
  %24 = and i32 %23, 7
  %.not51 = icmp eq i32 %24, 1
  br i1 %.not51, label %_ZNK9Stockfish8Position7captureENS_4MoveE.exit.thread, label %35

_ZNK9Stockfish8Position7captureENS_4MoveE.exit.thread: ; preds = %.lr.ph, %18
  %25 = add i64 %.04661, 1
  %26 = call noundef zeroext i1 @_ZNK9Stockfish8Position11gives_checkENS_4MoveE(ptr noundef nonnull align 8 dereferenceable(865) %0, i16 %.sroa.05.0.copyload) #24
  call void @_ZN9Stockfish8Position7do_moveENS_4MoveERNS_9StateInfoEb(ptr noundef nonnull align 8 dereferenceable(865) %0, i16 %.sroa.05.0.copyload, ptr noundef nonnull align 64 dereferenceable(11264) %3, i1 noundef zeroext %26) #24
  %27 = call fastcc noundef i32 @_ZN9Stockfish12_GLOBAL__N_16searchILb0EEENS_10Tablebases8WDLScoreERNS_8PositionEPNS2_10ProbeStateE(ptr noundef nonnull align 8 dereferenceable(865) %0, ptr noundef %1), !range !70
  %28 = sub nsw i32 0, %27
  call void @_ZN9Stockfish8Position9undo_moveENS_4MoveE(ptr noundef nonnull align 8 dereferenceable(865) %0, i16 %.sroa.05.0.copyload) #24
  %29 = load i32, ptr %1, align 4
  %30 = icmp eq i32 %29, 0
  br i1 %30, label %.loopexit, label %31

31:                                               ; preds = %_ZNK9Stockfish8Position7captureENS_4MoveE.exit.thread
  %32 = icmp slt i32 %.04562, %28
  br i1 %32, label %33, label %35

33:                                               ; preds = %31
  %34 = icmp slt i32 %27, -1
  br i1 %34, label %.loopexit.sink.split, label %35

35:                                               ; preds = %31, %33, %18
  %.147 = phi i64 [ %25, %33 ], [ %25, %31 ], [ %.04661, %18 ]
  %.1 = phi i32 [ %28, %33 ], [ %.04562, %31 ], [ %.04562, %18 ]
  %36 = getelementptr inbounds i8, ptr %.04860, i64 8
  %.not = icmp eq ptr %36, %6
  br i1 %.not, label %._crit_edge, label %.lr.ph

._crit_edge:                                      ; preds = %35
  %37 = icmp ne i64 %.147, 0
  %38 = icmp eq i64 %.147, %10
  %39 = and i1 %37, %38
  br i1 %39, label %.thread, label %._crit_edge.thread

._crit_edge.thread:                               ; preds = %2, %._crit_edge
  %.045.lcssa66 = phi i32 [ %.1, %._crit_edge ], [ -2, %2 ]
  %40 = call fastcc noundef i32 @_ZN9Stockfish12_GLOBAL__N_111probe_tableILNS0_6TBTypeE0ENS_10Tablebases8WDLScoreEEET0_RKNS_8PositionEPNS3_10ProbeStateES4_(ptr noundef nonnull align 8 dereferenceable(865) %0, ptr noundef %1)
  %41 = load i32, ptr %1, align 4
  %42 = icmp eq i32 %41, 0
  br i1 %42, label %.loopexit, label %43

43:                                               ; preds = %._crit_edge.thread
  %.not50 = icmp slt i32 %.045.lcssa66, %40
  br i1 %.not50, label %.loopexit.sink.split, label %.thread

.thread:                                          ; preds = %._crit_edge, %43
  %.045.lcssa6771 = phi i32 [ %.045.lcssa66, %43 ], [ %.1, %._crit_edge ]
  %44 = phi i1 [ false, %43 ], [ true, %._crit_edge ]
  %45 = icmp sgt i32 %.045.lcssa6771, 0
  %46 = or i1 %45, %44
  %47 = select i1 %46, i32 2, i32 1
  br label %.loopexit.sink.split

.loopexit.sink.split:                             ; preds = %33, %43, %.thread
  %.sink = phi i32 [ %47, %.thread ], [ 1, %43 ], [ 2, %33 ]
  %.0.ph = phi i32 [ %.045.lcssa6771, %.thread ], [ %40, %43 ], [ 2, %33 ]
  store i32 %.sink, ptr %1, align 4
  br label %.loopexit

.loopexit:                                        ; preds = %_ZNK9Stockfish8Position7captureENS_4MoveE.exit.thread, %.loopexit.sink.split, %._crit_edge.thread
  %.0 = phi i32 [ 0, %._crit_edge.thread ], [ %.0.ph, %.loopexit.sink.split ], [ 0, %_ZNK9Stockfish8Position7captureENS_4MoveE.exit.thread ]
  ret i32 %.0
}